target datalayout = "e-m:e-p270:32:32-p271:32:32-p272:64:64-i64:64-i128:128-f80:128-n8:16:32:64-S128"
target triple = "x86_64-unknown-linux-gnu"

%"class.icu_75::UnicodeString" = type { %"class.icu_75::Replaceable", %"union.icu_75::UnicodeString::StackBufferOrFields" }
%"class.icu_75::Replaceable" = type { %"class.icu_75::UObject" }
%"class.icu_75::UObject" = type { ptr }
%"union.icu_75::UnicodeString::StackBufferOrFields" = type { %struct.anon.0, [32 x i8] }
%struct.anon.0 = type { i16, i32, i32, ptr }
%"class.icu_75::UVector" = type { %"class.icu_75::UObject", i32, i32, ptr, ptr, ptr }
%"class.icu_75::UXMLElement" = type { %"class.icu_75::UObject", ptr, ptr, %"class.icu_75::UnicodeString", %"class.icu_75::UVector", %"class.icu_75::UVector", %"class.icu_75::UVector", ptr }

@_ZTIN6icu_757UObjectE = external constant ptr
@_ZTIN6icu_7511UXMLElementE = constant { ptr, ptr, ptr } { ptr getelementptr inbounds (ptr, ptr @_ZTVN10__cxxabiv120__si_class_type_infoE, i64 2), ptr @_ZTSN6icu_7511UXMLElementE, ptr @_ZTIN6icu_757UObjectE }, align 8

; Function Attrs: mustprogress nounwind uwtable
define linkonce_odr noundef i32 @_ZNK6icu_757UVector4sizeEv(ptr noundef nonnull align 8 dereferenceable(40) %this) #0 comdat align 2 {
entry:
  %this.addr = alloca ptr, align 8
  store ptr %this, ptr %this.addr, align 8
  %this1 = load ptr, ptr %this.addr, align 8
  %count = getelementptr inbounds %"class.icu_75::UVector", ptr %this1, i32 0, i32 1
  %0 = load i32, ptr %count, align 8
  ret i32 %0
}

; Function Attrs: mustprogress uwtable
define noundef ptr @_ZNK6icu_7511UXMLElement16nextChildElementERi(ptr noundef nonnull align 8 dereferenceable(216) %this, ptr noundef nonnull align 4 dereferenceable(4) %i) #1 align 2 {
entry:
  %retval = alloca ptr, align 8
  %this.addr = alloca ptr, align 8
  %i.addr = alloca ptr, align 8
  %node = alloca ptr, align 8
  %count = alloca i32, align 4
  %elem = alloca ptr, align 8
  store ptr %this, ptr %this.addr, align 8
  store ptr %i, ptr %i.addr, align 8
  %this1 = load ptr, ptr %this.addr, align 8
  %0 = load ptr, ptr %i.addr, align 8
  %1 = load i32, ptr %0, align 4
  %cmp = icmp slt i32 %1, 0
  br i1 %cmp, label %if.then, label %if.end

if.then:                                          ; preds = %entry
  store ptr null, ptr %retval, align 8
  br label %return

if.end:                                           ; preds = %entry
  %fChildren = getelementptr inbounds %"class.icu_75::UXMLElement", ptr %this1, i32 0, i32 6
  %call = call noundef i32 @_ZNK6icu_757UVector4sizeEv(ptr noundef nonnull align 8 dereferenceable(40) %fChildren)
  store i32 %call, ptr %count, align 4
  br label %while.cond

while.cond:                                       ; preds = %if.end7, %if.end
  %2 = load ptr, ptr %i.addr, align 8
  %3 = load i32, ptr %2, align 4
  %4 = load i32, ptr %count, align 4
  %cmp2 = icmp slt i32 %3, %4
  br i1 %cmp2, label %while.body, label %while.end

while.body:                                       ; preds = %while.cond
  %fChildren3 = getelementptr inbounds %"class.icu_75::UXMLElement", ptr %this1, i32 0, i32 6
  %5 = load ptr, ptr %i.addr, align 8
  %6 = load i32, ptr %5, align 4
  %inc = add nsw i32 %6, 1
  store i32 %inc, ptr %5, align 4
  %call4 = call noundef ptr @_ZNK6icu_757UVector9elementAtEi(ptr noundef nonnull align 8 dereferenceable(40) %fChildren3, i32 noundef %6)
  store ptr %call4, ptr %node, align 8
  %7 = load ptr, ptr %node, align 8
  %8 = icmp eq ptr %7, null
  br i1 %8, label %dynamic_cast.null, label %dynamic_cast.notnull

dynamic_cast.notnull:                             ; preds = %while.body
  %9 = call ptr @__dynamic_cast(ptr %7, ptr @_ZTIN6icu_757UObjectE, ptr @_ZTIN6icu_7511UXMLElementE, i64 0) #6
  br label %dynamic_cast.end

dynamic_cast.null:                                ; preds = %while.body
  br label %dynamic_cast.end

dynamic_cast.end:                                 ; preds = %dynamic_cast.null, %dynamic_cast.notnull
  %10 = phi ptr [ %9, %dynamic_cast.notnull ], [ null, %dynamic_cast.null ]
  store ptr %10, ptr %elem, align 8
  %11 = load ptr, ptr %elem, align 8
  %cmp5 = icmp ne ptr %11, null
  br i1 %cmp5, label %if.then6, label %if.end7

if.then6:                                         ; preds = %dynamic_cast.end
  %12 = load ptr, ptr %elem, align 8
  store ptr %12, ptr %retval, align 8
  br label %return

if.end7:                                          ; preds = %dynamic_cast.end
  br label %while.cond, !llvm.loop !21

while.end:                                        ; preds = %while.cond
  store ptr null, ptr %retval, align 8
  br label %return

return:                                           ; preds = %while.end, %if.then6, %if.then
  %13 = load ptr, ptr %retval, align 8
  ret ptr %13
}