; Function Attrs: mustprogress uwtable
define noundef ptr @_ZNK6icu_7511UXMLElement16nextChildElementERi(ptr noundef nonnull align 8 dereferenceable(216) %this, ptr nocapture noundef nonnull align 4 dereferenceable(4) %i) local_unnamed_addr #1 align 2 {
entry:
  %0 = load i32, ptr %i, align 4
  %cmp = icmp slt i32 %0, 0
  br i1 %cmp, label %return, label %if.end

if.end:                                           ; preds = %entry
  %fChildren = getelementptr inbounds i8, ptr %this, i64 168
  %count.i = getelementptr inbounds i8, ptr %this, i64 176
  %1 = load i32, ptr %count.i, align 8
  br label %while.cond

while.cond:                                       ; preds = %dynamic_cast.end, %if.end
  %2 = load i32, ptr %i, align 4
  %cmp2 = icmp slt i32 %2, %1
  br i1 %cmp2, label %while.body, label %return

while.body:                                       ; preds = %while.cond
  %inc = add nsw i32 %2, 1
  store i32 %inc, ptr %i, align 4
  %call4 = tail call noundef ptr @_ZNK6icu_757UVector9elementAtEi(ptr noundef nonnull align 8 dereferenceable(40) %fChildren, i32 noundef %2)
  %3 = icmp eq ptr %call4, null
  br i1 %3, label %dynamic_cast.end, label %dynamic_cast.notnull

dynamic_cast.notnull:                             ; preds = %while.body
  %4 = tail call ptr @__dynamic_cast(ptr nonnull %call4, ptr nonnull @_ZTIN6icu_757UObjectE, ptr nonnull @_ZTIN6icu_7511UXMLElementE, i64 0) #11
  br label %dynamic_cast.end

dynamic_cast.end:                                 ; preds = %while.body, %dynamic_cast.notnull
  %5 = phi ptr [ %4, %dynamic_cast.notnull ], [ null, %while.body ]
  %cmp5.not = icmp eq ptr %5, null
  br i1 %cmp5.not, label %while.cond, label %return, !llvm.loop !20

return:                                           ; preds = %while.cond, %dynamic_cast.end, %entry
  %retval.0 = phi ptr [ null, %entry ], [ null, %while.cond ], [ %5, %dynamic_cast.end ]
  ret ptr %retval.0
}